; Function Attrs: mustprogress nounwind uwtable
define void @_ZN18OpenImageIO_v2_6_011thread_poolD2Ev(ptr nocapture noundef nonnull align 8 dereferenceable(8) %this) unnamed_addr #6 align 2 personality ptr @__gxx_personality_v0 {
entry:
  %0 = load ptr, ptr %this, align 8
  %cmp.not.i = icmp eq ptr %0, null
  br i1 %cmp.not.i, label %_ZNSt10unique_ptrIN18OpenImageIO_v2_6_011thread_pool4ImplESt14default_deleteIS2_EED2Ev.exit, label %_ZNKSt14default_deleteIN18OpenImageIO_v2_6_011thread_pool4ImplEEclEPS2_.exit.i

_ZNKSt14default_deleteIN18OpenImageIO_v2_6_011thread_pool4ImplEEclEPS2_.exit.i: ; preds = %entry
  tail call void @_ZN18OpenImageIO_v2_6_011thread_pool4ImplD2Ev(ptr noundef nonnull align 8 dereferenceable(265) %0) #20
  tail call void @_ZdlPv(ptr noundef nonnull %0) #27
  br label %_ZNSt10unique_ptrIN18OpenImageIO_v2_6_011thread_pool4ImplESt14default_deleteIS2_EED2Ev.exit

_ZNSt10unique_ptrIN18OpenImageIO_v2_6_011thread_pool4ImplESt14default_deleteIS2_EED2Ev.exit: ; preds = %entry, %_ZNKSt14default_deleteIN18OpenImageIO_v2_6_011thread_pool4ImplEEclEPS2_.exit.i
  store ptr null, ptr %this, align 8
  ret void
}